target datalayout = "e-m:e-p270:32:32-p271:32:32-p272:64:64-i64:64-i128:128-f80:128-n8:16:32:64-S128"
target triple = "x86_64-pc-linux-gnu"

%struct.FTPContext = type { ptr, ptr, ptr, [1024 x i8], ptr, ptr, i32, i32, ptr, ptr, ptr, ptr, i64, i64, i32, ptr, i32, i32, i32, ptr, ptr, i64, i64, i32, ptr, ptr }
%struct.AVBPrint = type { ptr, i32, i32, i32, [1 x i8], [1000 x i8] }

@.str.12 = private unnamed_addr constant [4 x i8] c"%s\0A\00", align 1
@.str.13 = private unnamed_addr constant [5 x i8] c"%s\0D\0A\00", align 1

; Function Attrs: inlinehint nounwind uwtable
define internal i32 @ffurl_read(ptr noundef %0, ptr noundef %1, i32 noundef %2) #3 {
  %4 = alloca ptr, align 8
  %5 = alloca ptr, align 8
  %6 = alloca i32, align 4
  store ptr %0, ptr %4, align 8, !tbaa !4
  store ptr %1, ptr %5, align 8, !tbaa !9
  store i32 %2, ptr %6, align 4, !tbaa !11
  %7 = load ptr, ptr %4, align 8, !tbaa !4
  %8 = load ptr, ptr %5, align 8, !tbaa !9
  %9 = load i32, ptr %6, align 4, !tbaa !11
  %10 = call i32 @ffurl_read2(ptr noundef %7, ptr noundef %8, i32 noundef %9)
  ret i32 %10
}

; Function Attrs: nounwind uwtable
define internal i32 @ftp_getc(ptr noundef %0) #0 {
  %2 = alloca i32, align 4
  %3 = alloca ptr, align 8
  %4 = alloca i32, align 4
  %5 = alloca i32, align 4
  store ptr %0, ptr %3, align 8, !tbaa !19
  call void @llvm.lifetime.start.p0(i64 4, ptr %4) #9
  %6 = load ptr, ptr %3, align 8, !tbaa !19
  %7 = getelementptr inbounds nuw %struct.FTPContext, ptr %6, i32 0, i32 4
  %8 = load ptr, ptr %7, align 8, !tbaa !69
  %9 = load ptr, ptr %3, align 8, !tbaa !19
  %10 = getelementptr inbounds nuw %struct.FTPContext, ptr %9, i32 0, i32 5
  %11 = load ptr, ptr %10, align 8, !tbaa !70
  %12 = icmp uge ptr %8, %11
  br i1 %12, label %13, label %45

13:                                               ; preds = %1
  %14 = load ptr, ptr %3, align 8, !tbaa !19
  %15 = getelementptr inbounds nuw %struct.FTPContext, ptr %14, i32 0, i32 1
  %16 = load ptr, ptr %15, align 8, !tbaa !56
  %17 = load ptr, ptr %3, align 8, !tbaa !19
  %18 = getelementptr inbounds nuw %struct.FTPContext, ptr %17, i32 0, i32 3
  %19 = getelementptr inbounds [1024 x i8], ptr %18, i64 0, i64 0
  %20 = call i32 @ffurl_read(ptr noundef %16, ptr noundef %19, i32 noundef 1024)
  store i32 %20, ptr %4, align 4, !tbaa !11
  %21 = load i32, ptr %4, align 4, !tbaa !11
  %22 = icmp slt i32 %21, 0
  br i1 %22, label %23, label %25

23:                                               ; preds = %13
  %24 = load i32, ptr %4, align 4, !tbaa !11
  store i32 %24, ptr %2, align 4
  store i32 1, ptr %5, align 4
  br label %52

25:                                               ; preds = %13
  %26 = load i32, ptr %4, align 4, !tbaa !11
  %27 = icmp ne i32 %26, 0
  br i1 %27, label %29, label %28

28:                                               ; preds = %25
  store i32 -1, ptr %2, align 4
  store i32 1, ptr %5, align 4
  br label %52

29:                                               ; preds = %25
  %30 = load ptr, ptr %3, align 8, !tbaa !19
  %31 = getelementptr inbounds nuw %struct.FTPContext, ptr %30, i32 0, i32 3
  %32 = getelementptr inbounds [1024 x i8], ptr %31, i64 0, i64 0
  %33 = load ptr, ptr %3, align 8, !tbaa !19
  %34 = getelementptr inbounds nuw %struct.FTPContext, ptr %33, i32 0, i32 4
  store ptr %32, ptr %34, align 8, !tbaa !69
  %35 = load ptr, ptr %3, align 8, !tbaa !19
  %36 = getelementptr inbounds nuw %struct.FTPContext, ptr %35, i32 0, i32 3
  %37 = getelementptr inbounds [1024 x i8], ptr %36, i64 0, i64 0
  %38 = load i32, ptr %4, align 4, !tbaa !11
  %39 = sext i32 %38 to i64
  %40 = getelementptr inbounds i8, ptr %37, i64 %39
  %41 = load ptr, ptr %3, align 8, !tbaa !19
  %42 = getelementptr inbounds nuw %struct.FTPContext, ptr %41, i32 0, i32 5
  store ptr %40, ptr %42, align 8, !tbaa !70
  br label %43

43:                                               ; preds = %29
  br label %44

44:                                               ; preds = %43
  br label %45

45:                                               ; preds = %44, %1
  %46 = load ptr, ptr %3, align 8, !tbaa !19
  %47 = getelementptr inbounds nuw %struct.FTPContext, ptr %46, i32 0, i32 4
  %48 = load ptr, ptr %47, align 8, !tbaa !69
  %49 = getelementptr inbounds nuw i8, ptr %48, i32 1
  store ptr %49, ptr %47, align 8, !tbaa !69
  %50 = load i8, ptr %48, align 1, !tbaa !30
  %51 = zext i8 %50 to i32
  store i32 %51, ptr %2, align 4
  store i32 1, ptr %5, align 4
  br label %52

52:                                               ; preds = %45, %28, %23
  call void @llvm.lifetime.end.p0(i64 4, ptr %4) #9
  %53 = load i32, ptr %2, align 4
  ret i32 %53
}

; Function Attrs: nounwind uwtable
define internal i32 @ftp_get_line(ptr noundef %0, ptr noundef %1, i32 noundef %2) #0 {
  %4 = alloca i32, align 4
  %5 = alloca ptr, align 8
  %6 = alloca ptr, align 8
  %7 = alloca i32, align 4
  %8 = alloca i32, align 4
  %9 = alloca ptr, align 8
  %10 = alloca i32, align 4
  store ptr %0, ptr %5, align 8, !tbaa !19
  store ptr %1, ptr %6, align 8, !tbaa !9
  store i32 %2, ptr %7, align 4, !tbaa !11
  call void @llvm.lifetime.start.p0(i64 4, ptr %8) #9
  call void @llvm.lifetime.start.p0(i64 8, ptr %9) #9
  %11 = load ptr, ptr %6, align 8, !tbaa !9
  store ptr %11, ptr %9, align 8, !tbaa !9
  br label %12

12:                                               ; preds = %53, %3
  %13 = load ptr, ptr %5, align 8, !tbaa !19
  %14 = call i32 @ftp_getc(ptr noundef %13)
  store i32 %14, ptr %8, align 4, !tbaa !11
  %15 = load i32, ptr %8, align 4, !tbaa !11
  %16 = icmp slt i32 %15, 0
  br i1 %16, label %17, label %19

17:                                               ; preds = %12
  %18 = load i32, ptr %8, align 4, !tbaa !11
  store i32 %18, ptr %4, align 4
  store i32 1, ptr %10, align 4
  br label %54

19:                                               ; preds = %12
  %20 = load i32, ptr %8, align 4, !tbaa !11
  %21 = icmp eq i32 %20, 10
  br i1 %21, label %22, label %37

22:                                               ; preds = %19
  %23 = load ptr, ptr %9, align 8, !tbaa !9
  %24 = load ptr, ptr %6, align 8, !tbaa !9
  %25 = icmp ugt ptr %23, %24
  br i1 %25, label %26, label %35

26:                                               ; preds = %22
  %27 = load ptr, ptr %9, align 8, !tbaa !9
  %28 = getelementptr inbounds i8, ptr %27, i64 -1
  %29 = load i8, ptr %28, align 1, !tbaa !30
  %30 = sext i8 %29 to i32
  %31 = icmp eq i32 %30, 13
  br i1 %31, label %32, label %35

32:                                               ; preds = %26
  %33 = load ptr, ptr %9, align 8, !tbaa !9
  %34 = getelementptr inbounds i8, ptr %33, i32 -1
  store ptr %34, ptr %9, align 8, !tbaa !9
  br label %35

35:                                               ; preds = %32, %26, %22
  %36 = load ptr, ptr %9, align 8, !tbaa !9
  store i8 0, ptr %36, align 1, !tbaa !30
  store i32 0, ptr %4, align 4
  store i32 1, ptr %10, align 4
  br label %54

37:                                               ; preds = %19
  %38 = load ptr, ptr %9, align 8, !tbaa !9
  %39 = load ptr, ptr %6, align 8, !tbaa !9
  %40 = ptrtoint ptr %38 to i64
  %41 = ptrtoint ptr %39 to i64
  %42 = sub i64 %40, %41
  %43 = load i32, ptr %7, align 4, !tbaa !11
  %44 = sub nsw i32 %43, 1
  %45 = sext i32 %44 to i64
  %46 = icmp slt i64 %42, %45
  br i1 %46, label %47, label %52

47:                                               ; preds = %37
  %48 = load i32, ptr %8, align 4, !tbaa !11
  %49 = trunc i32 %48 to i8
  %50 = load ptr, ptr %9, align 8, !tbaa !9
  %51 = getelementptr inbounds nuw i8, ptr %50, i32 1
  store ptr %51, ptr %9, align 8, !tbaa !9
  store i8 %49, ptr %50, align 1, !tbaa !30
  br label %52

52:                                               ; preds = %47, %37
  br label %53

53:                                               ; preds = %52
  br label %12

54:                                               ; preds = %35, %17
  call void @llvm.lifetime.end.p0(i64 8, ptr %9) #9
  call void @llvm.lifetime.end.p0(i64 4, ptr %8) #9
  %55 = load i32, ptr %4, align 4
  ret i32 %55
}

; Function Attrs: nounwind uwtable
define internal i32 @ftp_status(ptr noundef %0, ptr noundef %1, ptr noundef %2) #0 {
  %4 = alloca i32, align 4
  %5 = alloca ptr, align 8
  %6 = alloca ptr, align 8
  %7 = alloca ptr, align 8
  %8 = alloca i32, align 4
  %9 = alloca i32, align 4
  %10 = alloca i32, align 4
  %11 = alloca i32, align 4
  %12 = alloca i32, align 4
  %13 = alloca i32, align 4
  %14 = alloca [1024 x i8], align 16
  %15 = alloca %struct.AVBPrint, align 8
  %16 = alloca i32, align 4
  store ptr %0, ptr %5, align 8, !tbaa !19
  store ptr %1, ptr %6, align 8, !tbaa !62
  store ptr %2, ptr %7, align 8, !tbaa !64
  call void @llvm.lifetime.start.p0(i64 4, ptr %8) #9
  call void @llvm.lifetime.start.p0(i64 4, ptr %9) #9
  call void @llvm.lifetime.start.p0(i64 4, ptr %10) #9
  store i32 0, ptr %10, align 4, !tbaa !11
  call void @llvm.lifetime.start.p0(i64 4, ptr %11) #9
  store i32 0, ptr %11, align 4, !tbaa !11
  call void @llvm.lifetime.start.p0(i64 4, ptr %12) #9
  store i32 0, ptr %12, align 4, !tbaa !11
  call void @llvm.lifetime.start.p0(i64 4, ptr %13) #9
  call void @llvm.lifetime.start.p0(i64 1024, ptr %14) #9
  call void @llvm.lifetime.start.p0(i64 1024, ptr %15) #9
  %17 = load ptr, ptr %6, align 8, !tbaa !62
  %18 = icmp ne ptr %17, null
  br i1 %18, label %19, label %20

19:                                               ; preds = %3
  call void @av_bprint_init(ptr noundef %15, i32 noundef 0, i32 noundef 1)
  br label %20

20:                                               ; preds = %19, %3
  br label %21

21:                                               ; preds = %149, %20
  %22 = load i32, ptr %12, align 4, !tbaa !11
  %23 = icmp ne i32 %22, 0
  br i1 %23, label %24, label %27

24:                                               ; preds = %21
  %25 = load i32, ptr %10, align 4, !tbaa !11
  %26 = icmp ne i32 %25, 0
  br label %27

27:                                               ; preds = %24, %21
  %28 = phi i1 [ true, %21 ], [ %26, %24 ]
  br i1 %28, label %29, label %150

29:                                               ; preds = %27
  %30 = load ptr, ptr %5, align 8, !tbaa !19
  %31 = getelementptr inbounds [1024 x i8], ptr %14, i64 0, i64 0
  %32 = call i32 @ftp_get_line(ptr noundef %30, ptr noundef %31, i32 noundef 1024)
  store i32 %32, ptr %8, align 4, !tbaa !11
  %33 = icmp slt i32 %32, 0
  br i1 %33, label %34, label %41

34:                                               ; preds = %29
  %35 = load ptr, ptr %6, align 8, !tbaa !62
  %36 = icmp ne ptr %35, null
  br i1 %36, label %37, label %39

37:                                               ; preds = %34
  %38 = call i32 @av_bprint_finalize(ptr noundef %15, ptr noundef null)
  br label %39

39:                                               ; preds = %37, %34
  %40 = load i32, ptr %8, align 4, !tbaa !11
  store i32 %40, ptr %4, align 4
  store i32 1, ptr %16, align 4
  br label %158

41:                                               ; preds = %29
  %42 = load ptr, ptr %5, align 8, !tbaa !19
  %43 = getelementptr inbounds [1024 x i8], ptr %14, i64 0, i64 0
  call void (ptr, i32, ptr, ...) @av_log(ptr noundef %42, i32 noundef 48, ptr noundef @.str.12, ptr noundef %43)
  %44 = getelementptr inbounds [1024 x i8], ptr %14, i64 0, i64 0
  %45 = call i64 @strlen(ptr noundef %44) #10
  %46 = trunc i64 %45 to i32
  store i32 %46, ptr %13, align 4, !tbaa !11
  store i32 0, ptr %8, align 4, !tbaa !11
  %47 = load i32, ptr %13, align 4, !tbaa !11
  %48 = icmp sge i32 %47, 3
  br i1 %48, label %49, label %83

49:                                               ; preds = %41
  store i32 0, ptr %9, align 4, !tbaa !11
  br label %50

50:                                               ; preds = %79, %49
  %51 = load i32, ptr %9, align 4, !tbaa !11
  %52 = icmp slt i32 %51, 3
  br i1 %52, label %53, label %82

53:                                               ; preds = %50
  %54 = load i32, ptr %9, align 4, !tbaa !11
  %55 = sext i32 %54 to i64
  %56 = getelementptr inbounds [1024 x i8], ptr %14, i64 0, i64 %55
  %57 = load i8, ptr %56, align 1, !tbaa !30
  %58 = sext i8 %57 to i32
  %59 = icmp slt i32 %58, 48
  br i1 %59, label %67, label %60

60:                                               ; preds = %53
  %61 = load i32, ptr %9, align 4, !tbaa !11
  %62 = sext i32 %61 to i64
  %63 = getelementptr inbounds [1024 x i8], ptr %14, i64 0, i64 %62
  %64 = load i8, ptr %63, align 1, !tbaa !30
  %65 = sext i8 %64 to i32
  %66 = icmp sgt i32 %65, 57
  br i1 %66, label %67, label %68

67:                                               ; preds = %60, %53
  store i32 0, ptr %8, align 4, !tbaa !11
  br label %82

68:                                               ; preds = %60
  %69 = load i32, ptr %8, align 4, !tbaa !11
  %70 = mul nsw i32 %69, 10
  store i32 %70, ptr %8, align 4, !tbaa !11
  %71 = load i32, ptr %9, align 4, !tbaa !11
  %72 = sext i32 %71 to i64
  %73 = getelementptr inbounds [1024 x i8], ptr %14, i64 0, i64 %72
  %74 = load i8, ptr %73, align 1, !tbaa !30
  %75 = sext i8 %74 to i32
  %76 = sub nsw i32 %75, 48
  %77 = load i32, ptr %8, align 4, !tbaa !11
  %78 = add nsw i32 %77, %76
  store i32 %78, ptr %8, align 4, !tbaa !11
  br label %79

79:                                               ; preds = %68
  %80 = load i32, ptr %9, align 4, !tbaa !11
  %81 = add nsw i32 %80, 1
  store i32 %81, ptr %9, align 4, !tbaa !11
  br label %50, !llvm.loop !66

82:                                               ; preds = %67, %50
  br label %83

83:                                               ; preds = %82, %41
  %84 = load i32, ptr %12, align 4, !tbaa !11
  %85 = icmp ne i32 %84, 0
  br i1 %85, label %115, label %86

86:                                               ; preds = %83
  %87 = load i32, ptr %8, align 4, !tbaa !11
  %88 = icmp sge i32 %87, 500
  br i1 %88, label %89, label %91

89:                                               ; preds = %86
  store i32 1, ptr %12, align 4, !tbaa !11
  %90 = load i32, ptr %8, align 4, !tbaa !11
  store i32 %90, ptr %11, align 4, !tbaa !11
  br label %114

91:                                               ; preds = %86
  store i32 0, ptr %9, align 4, !tbaa !11
  br label %92

92:                                               ; preds = %110, %91
  %93 = load ptr, ptr %7, align 8, !tbaa !64
  %94 = load i32, ptr %9, align 4, !tbaa !11
  %95 = sext i32 %94 to i64
  %96 = getelementptr inbounds i32, ptr %93, i64 %95
  %97 = load i32, ptr %96, align 4, !tbaa !11
  %98 = icmp ne i32 %97, 0
  br i1 %98, label %99, label %113

99:                                               ; preds = %92
  %100 = load i32, ptr %8, align 4, !tbaa !11
  %101 = load ptr, ptr %7, align 8, !tbaa !64
  %102 = load i32, ptr %9, align 4, !tbaa !11
  %103 = sext i32 %102 to i64
  %104 = getelementptr inbounds i32, ptr %101, i64 %103
  %105 = load i32, ptr %104, align 4, !tbaa !11
  %106 = icmp eq i32 %100, %105
  br i1 %106, label %107, label %109

107:                                              ; preds = %99
  store i32 1, ptr %12, align 4, !tbaa !11
  %108 = load i32, ptr %8, align 4, !tbaa !11
  store i32 %108, ptr %11, align 4, !tbaa !11
  br label %113

109:                                              ; preds = %99
  br label %110

110:                                              ; preds = %109
  %111 = load i32, ptr %9, align 4, !tbaa !11
  %112 = add nsw i32 %111, 1
  store i32 %112, ptr %9, align 4, !tbaa !11
  br label %92, !llvm.loop !67

113:                                              ; preds = %107, %92
  br label %114

114:                                              ; preds = %113, %89
  br label %115

115:                                              ; preds = %114, %83
  %116 = load i32, ptr %12, align 4, !tbaa !11
  %117 = icmp ne i32 %116, 0
  br i1 %117, label %118, label %149

118:                                              ; preds = %115
  %119 = load ptr, ptr %6, align 8, !tbaa !62
  %120 = icmp ne ptr %119, null
  br i1 %120, label %121, label %123

121:                                              ; preds = %118
  %122 = getelementptr inbounds [1024 x i8], ptr %14, i64 0, i64 0
  call void (ptr, ptr, ...) @av_bprintf(ptr noundef %15, ptr noundef @.str.13, ptr noundef %122)
  br label %123

123:                                              ; preds = %121, %118
  %124 = load i32, ptr %13, align 4, !tbaa !11
  %125 = icmp sge i32 %124, 4
  br i1 %125, label %126, label %148

126:                                              ; preds = %123
  %127 = load i32, ptr %10, align 4, !tbaa !11
  %128 = icmp ne i32 %127, 0
  br i1 %128, label %136, label %129

129:                                              ; preds = %126
  %130 = getelementptr inbounds [1024 x i8], ptr %14, i64 0, i64 3
  %131 = load i8, ptr %130, align 1, !tbaa !30
  %132 = sext i8 %131 to i32
  %133 = icmp eq i32 %132, 45
  br i1 %133, label %134, label %136

134:                                              ; preds = %129
  %135 = load i32, ptr %8, align 4, !tbaa !11
  store i32 %135, ptr %10, align 4, !tbaa !11
  br label %147

136:                                              ; preds = %129, %126
  %137 = load i32, ptr %8, align 4, !tbaa !11
  %138 = load i32, ptr %10, align 4, !tbaa !11
  %139 = icmp eq i32 %137, %138
  br i1 %139, label %140, label %146

140:                                              ; preds = %136
  %141 = getelementptr inbounds [1024 x i8], ptr %14, i64 0, i64 3
  %142 = load i8, ptr %141, align 1, !tbaa !30
  %143 = sext i8 %142 to i32
  %144 = icmp eq i32 %143, 32
  br i1 %144, label %145, label %146

145:                                              ; preds = %140
  store i32 0, ptr %10, align 4, !tbaa !11
  br label %146

146:                                              ; preds = %145, %140, %136
  br label %147

147:                                              ; preds = %146, %134
  br label %148

148:                                              ; preds = %147, %123
  br label %149

149:                                              ; preds = %148, %115
  br label %21, !llvm.loop !68

150:                                              ; preds = %27
  %151 = load ptr, ptr %6, align 8, !tbaa !62
  %152 = icmp ne ptr %151, null
  br i1 %152, label %153, label %156

153:                                              ; preds = %150
  %154 = load ptr, ptr %6, align 8, !tbaa !62
  %155 = call i32 @av_bprint_finalize(ptr noundef %15, ptr noundef %154)
  br label %156

156:                                              ; preds = %153, %150
  %157 = load i32, ptr %11, align 4, !tbaa !11
  store i32 %157, ptr %4, align 4
  store i32 1, ptr %16, align 4
  br label %158

158:                                              ; preds = %156, %39
  call void @llvm.lifetime.end.p0(i64 1024, ptr %15) #9
  call void @llvm.lifetime.end.p0(i64 1024, ptr %14) #9
  call void @llvm.lifetime.end.p0(i64 4, ptr %13) #9
  call void @llvm.lifetime.end.p0(i64 4, ptr %12) #9
  call void @llvm.lifetime.end.p0(i64 4, ptr %11) #9
  call void @llvm.lifetime.end.p0(i64 4, ptr %10) #9
  call void @llvm.lifetime.end.p0(i64 4, ptr %9) #9
  call void @llvm.lifetime.end.p0(i64 4, ptr %8) #9
  %159 = load i32, ptr %4, align 4
  ret i32 %159
}