; Function Attrs: nounwind uwtable
define internal fastcc i32 @ftp_status(ptr noundef %0, ptr noundef %1, ptr noundef readonly captures(none) %2) unnamed_addr #0 {
  %4 = alloca [1024 x i8], align 16
  %5 = alloca %struct.AVBPrint, align 8
  call void @llvm.lifetime.start.p0(i64 1024, ptr nonnull %4) #10
  call void @llvm.lifetime.start.p0(i64 1024, ptr nonnull %5) #10
  %.not = icmp eq ptr %1, null
  br i1 %.not, label %7, label %6

6:                                                ; preds = %3
  call void @av_bprint_init(ptr noundef nonnull %5, i32 noundef 0, i32 noundef 1) #10
  br label %7

7:                                                ; preds = %6, %3
  %8 = getelementptr inbounds nuw i8, ptr %0, i64 1048
  %9 = getelementptr inbounds nuw i8, ptr %0, i64 1056
  %10 = getelementptr inbounds nuw i8, ptr %0, i64 8
  %11 = getelementptr inbounds nuw i8, ptr %0, i64 24
  %12 = ptrtoint ptr %4 to i64
  %13 = getelementptr inbounds nuw i8, ptr %4, i64 3
  br label %14

14:                                               ; preds = %7, %.loopexit
  %.not5579 = phi i1 [ true, %7 ], [ %.not55, %.loopexit ]
  %.04378 = phi i32 [ 0, %7 ], [ %.14465, %.loopexit ]
  %.04577 = phi i32 [ 0, %7 ], [ %.146, %.loopexit ]
  br label %.outer

.outer:                                           ; preds = %40, %14
  %.0.i.ph = phi ptr [ %41, %40 ], [ %4, %14 ]
  %15 = ptrtoint ptr %.0.i.ph to i64
  %16 = sub i64 %15, %12
  %17 = icmp slt i64 %16, 1023
  br label %18

18:                                               ; preds = %.outer, %39
  %19 = load ptr, ptr %8, align 8, !tbaa !63
  %20 = load ptr, ptr %9, align 8, !tbaa !64
  %.not.i.i = icmp ult ptr %19, %20
  br i1 %.not.i.i, label %ftp_getc.exit.i, label %21

21:                                               ; preds = %18
  %22 = load ptr, ptr %10, align 8, !tbaa !15
  %23 = call i32 @ffurl_read2(ptr noundef %22, ptr noundef nonnull %11, i32 noundef 1024) #10
  %24 = icmp slt i32 %23, 0
  br i1 %24, label %42, label %25

25:                                               ; preds = %21
  %.not14.i.i = icmp eq i32 %23, 0
  br i1 %.not14.i.i, label %42, label %26

26:                                               ; preds = %25
  %27 = zext nneg i32 %23 to i64
  %28 = getelementptr inbounds nuw i8, ptr %11, i64 %27
  store ptr %28, ptr %9, align 8, !tbaa !64
  br label %ftp_getc.exit.i

ftp_getc.exit.i:                                  ; preds = %26, %18
  %29 = phi ptr [ %11, %26 ], [ %19, %18 ]
  %30 = getelementptr inbounds nuw i8, ptr %29, i64 1
  store ptr %30, ptr %8, align 8, !tbaa !63
  %31 = load i8, ptr %29, align 1, !tbaa !29
  %32 = icmp eq i8 %31, 10
  br i1 %32, label %33, label %39

33:                                               ; preds = %ftp_getc.exit.i
  %34 = icmp ugt ptr %.0.i.ph, %4
  br i1 %34, label %35, label %43

35:                                               ; preds = %33
  %36 = getelementptr inbounds i8, ptr %.0.i.ph, i64 -1
  %37 = load i8, ptr %36, align 1, !tbaa !29
  %38 = icmp eq i8 %37, 13
  %spec.select.i = select i1 %38, ptr %36, ptr %.0.i.ph
  br label %43

39:                                               ; preds = %ftp_getc.exit.i
  br i1 %17, label %40, label %18

40:                                               ; preds = %39
  %41 = getelementptr inbounds nuw i8, ptr %.0.i.ph, i64 1
  store i8 %31, ptr %.0.i.ph, align 1, !tbaa !29
  br label %.outer

42:                                               ; preds = %21, %25
  %.015.i.ph = phi i32 [ -1, %25 ], [ %23, %21 ]
  br i1 %.not, label %76, label %.sink.split

43:                                               ; preds = %35, %33
  %.1.i = phi ptr [ %.0.i.ph, %33 ], [ %spec.select.i, %35 ]
  store i8 0, ptr %.1.i, align 1, !tbaa !29
  call void (ptr, i32, ptr, ...) @av_log(ptr noundef nonnull %0, i32 noundef 48, ptr noundef nonnull @.str.12, ptr noundef nonnull %4) #10
  %44 = call i64 @strlen(ptr noundef nonnull dereferenceable(1) %4) #11
  %45 = trunc i64 %44 to i32
  %46 = icmp sgt i32 %45, 2
  br i1 %46, label %.preheader69, label %.loopexit70

.preheader69:                                     ; preds = %43, %50
  %indvars.iv = phi i64 [ %indvars.iv.next, %50 ], [ 0, %43 ]
  %.15073 = phi i32 [ %53, %50 ], [ 0, %43 ]
  %47 = getelementptr inbounds nuw [1024 x i8], ptr %4, i64 0, i64 %indvars.iv
  %48 = load i8, ptr %47, align 1, !tbaa !29
  %49 = add i8 %48, -58
  %or.cond58 = icmp ult i8 %49, -10
  br i1 %or.cond58, label %.loopexit70, label %50

50:                                               ; preds = %.preheader69
  %51 = mul nsw i32 %.15073, 10
  %narrow = add nsw i8 %48, -48
  %52 = zext nneg i8 %narrow to i32
  %53 = add nsw i32 %51, %52
  %indvars.iv.next = add nuw nsw i64 %indvars.iv, 1
  %exitcond.not = icmp eq i64 %indvars.iv.next, 3
  br i1 %exitcond.not, label %.loopexit70, label %.preheader69, !llvm.loop !65

.loopexit70:                                      ; preds = %.preheader69, %50, %43
  %.049 = phi i32 [ 0, %43 ], [ 0, %.preheader69 ], [ %53, %50 ]
  br i1 %.not5579, label %54, label %.loopexit68

54:                                               ; preds = %.loopexit70
  %55 = icmp sgt i32 %.049, 499
  br i1 %55, label %.loopexit68, label %.preheader

.preheader:                                       ; preds = %54
  %56 = load i32, ptr %2, align 4, !tbaa !66
  %.not5675 = icmp eq i32 %56, 0
  br i1 %.not5675, label %.loopexit, label %.lr.ph

57:                                               ; preds = %.lr.ph
  %indvars.iv.next83 = add nuw nsw i64 %indvars.iv82, 1
  %58 = getelementptr inbounds nuw i32, ptr %2, i64 %indvars.iv.next83
  %59 = load i32, ptr %58, align 4, !tbaa !66
  %.not56 = icmp eq i32 %59, 0
  br i1 %.not56, label %.loopexit, label %.lr.ph, !llvm.loop !67

.lr.ph:                                           ; preds = %.preheader, %57
  %indvars.iv82 = phi i64 [ %indvars.iv.next83, %57 ], [ 0, %.preheader ]
  %60 = phi i32 [ %59, %57 ], [ %56, %.preheader ]
  %61 = icmp eq i32 %.049, %60
  br i1 %61, label %.loopexit68, label %57

.loopexit68:                                      ; preds = %.lr.ph, %.loopexit70, %54
  %.144.ph = phi i32 [ %.049, %54 ], [ %.04378, %.loopexit70 ], [ %.049, %.lr.ph ]
  br i1 %.not, label %63, label %62

62:                                               ; preds = %.loopexit68
  call void (ptr, ptr, ...) @av_bprintf(ptr noundef nonnull %5, ptr noundef nonnull @.str.13, ptr noundef nonnull %4) #10
  br label %63

63:                                               ; preds = %62, %.loopexit68
  %64 = icmp sgt i32 %45, 3
  br i1 %64, label %65, label %.loopexit

65:                                               ; preds = %63
  %66 = icmp eq i32 %.04577, 0
  %67 = load i8, ptr %13, align 1
  %68 = icmp eq i8 %67, 45
  %or.cond = select i1 %66, i1 %68, i1 false
  br i1 %or.cond, label %.loopexit, label %69

69:                                               ; preds = %65
  %70 = icmp eq i32 %.049, %.04577
  %71 = icmp eq i8 %67, 32
  %or.cond7 = select i1 %70, i1 %71, i1 false
  %spec.store.select = select i1 %or.cond7, i32 0, i32 %.04577
  br label %.loopexit

.loopexit:                                        ; preds = %57, %.preheader, %65, %69, %63
  %.not55 = phi i1 [ false, %69 ], [ false, %63 ], [ false, %65 ], [ true, %.preheader ], [ true, %57 ]
  %.14465 = phi i32 [ %.144.ph, %69 ], [ %.144.ph, %63 ], [ %.144.ph, %65 ], [ %.04378, %.preheader ], [ %.04378, %57 ]
  %.146 = phi i32 [ %spec.store.select, %69 ], [ %.04577, %63 ], [ %.049, %65 ], [ %.04577, %.preheader ], [ %.04577, %57 ]
  %72 = icmp ne i32 %.146, 0
  %73 = select i1 %.not55, i1 true, i1 %72
  br i1 %73, label %14, label %74, !llvm.loop !68

74:                                               ; preds = %.loopexit
  br i1 %.not, label %76, label %.sink.split

.sink.split:                                      ; preds = %74, %42
  %.sink = phi ptr [ null, %42 ], [ %1, %74 ]
  %.0.ph = phi i32 [ %.015.i.ph, %42 ], [ %.14465, %74 ]
  %75 = call i32 @av_bprint_finalize(ptr noundef nonnull %5, ptr noundef %.sink) #10
  br label %76

76:                                               ; preds = %.sink.split, %74, %42
  %.0 = phi i32 [ %.015.i.ph, %42 ], [ %.14465, %74 ], [ %.0.ph, %.sink.split ]
  call void @llvm.lifetime.end.p0(i64 1024, ptr nonnull %5) #10
  call void @llvm.lifetime.end.p0(i64 1024, ptr nonnull %4) #10
  ret i32 %.0
}